cnumpy.core.multiarray
_reconstruct
p0
(cnumpy
ndarray
p1
(I0
tp2
S'b'
p3
tp4
Rp5
(I1
(I20
I21
tp6
cnumpy
dtype
p7
(S'O8'
p8
I0
I1
tp9
Rp10
(I3
S'|'
p11
NNNI-1
I-1
I63
tp12
bI00
(lp13
I0
aI0
aI0
aI0
aI0
aI0
aI0
aI0
aI0
aI0
aI0
aI0
aI0
aI0
aI0
aI0
aI0
aI11
aI11
aI0
aI0
aI0
aI0
aI1
aI11
aI11
aI2
aI2
aI11
aI3
aI3
aI0
aI0
aI0
aI0
aI0
aI0
aI0
aI11
aI11
aI11
aI0
aI11
aI11
aI1
aI11
aI11
aI11
aI11
aI11
aI0
aI0
aI0
aI0
aI0
aI0
aI0
aI0
aI0
aI11
aI11
aI11
aI0
aI0
aI11
aI11
aI11
aI11
aI11
aI11
aI11
aI0
aI0
aI0
aI11
aI11
aI0
aI0
aI0
aI0
aI11
aI11
aI11
aI0
aI0
aI11
aI11
aI11
aI11
aI11
aI11
aI11
aI11
aI11
aI11
aI11
aI0
aI0
aI0
aI0
aI0
aI11
aI11
aI11
aI0
aI0
aI0
aI11
aI11
aI11
aI11
aI11
aI4
aI11
aI11
aI11
aI11
aI0
aI0
aI0
aI0
aI0
aI11
aI0
aI0
aI0
aI0
aI0
aI11
aI11
aI11
aI11
aI4
aI4
aI11
aI5
aI5
aI11
aI11
aI0
aI0
aI0
aI11
aI0
aI0
aI0
aI0
aI0
aI11
aI11
aI11
aI11
aI11
aI11
aI11
aI11
aI11
aI11
aI11
aI11
aI11
aI11
aI11
aI11
aI0
aI0
aI0
aI0
aI0
aI0
aI11
aI11
aI11
aI11
aI11
aI11
aI11
aI6
aI6
aI11
aI11
aI11
aI11
aI11
aI11
aI0
aI0
aI0
aI0
aI0
aI0
aI11
aI11
aI11
aI7
aI8
aI11
aI11
aI11
aI11
aI11
aI11
aI11
aI11
aI11
aI0
aI0
aI0
aI0
aI0
aI0
aI0
aI11
aI11
aI11
aI7
aI8
aI9
aI9
aI11
aI11
aI11
aI11
aI11
aI11
aI11
aI0
aI0
aI0
aI0
aI0
aI0
aI0
aI0
aI0
aI0
aI0
aI11
aI11
aI11
aI11
aI11
aI11
aI11
aI11
aI11
aI11
aI0
aI0
aI0
aI0
aI0
aI0
aI0
aI0
aI0
aI0
aI0
aI0
aI0
aI11
aI11
aI11
aI11
aI11
aI11
aI11
aI0
aI0
aI0
aI0
aI0
aI0
aI0
aI0
aI0
aI0
aI0
aI0
aI0
aI0
aI11
aI11
aI11
aI11
aI11
aI11
aI11
aI0
aI0
aI0
aI0
aI0
aI0
aI0
aI0
aI0
aI0
aI0
aI0
aI0
aI11
aI11
aI11
aI11
aI11
aI11
aI11
aI11
aI0
aI0
aI0
aI0
aI0
aI0
aI0
aI0
aI0
aI0
aI0
aI0
aI0
aI11
aI11
aI11
aI11
aI11
aI11
aI11
aI11
aI11
aI0
aI0
aI0
aI0
aI0
aI0
aI0
aI0
aI0
aI0
aI0
aI0
aI0
aI11
aI11
aI11
aI11
aI11
aI0
aI0
aI0
aI0
aI0
aI0
aI0
aI0
aI0
aI0
aI0
aI0
aI0
aI0
aI0
aI11
aI11
aI10
aI10
aI11
aI11
aI0
aI0
aI0
aI0
aI0
aI0
aI0
aI0
aI0
aI0
aI0
aI0
aI0
aI0
aI0
aI11
aI0
aI0
aI0
aI11
aI11
aI0
aI0
aI0
aI0
aI0
aI0
aI0
aI0
aI0
aI0
aI0
aI0
aI0
aI0
aI0
aI0
aI11
aI0
aI0
aI0
aI0
aI0
aI0
aI0
aI0
aI0
aI0
aI0
aI0
atp14
b.